; Function Attrs: mustprogress nofree nounwind willreturn memory(read, argmem: readwrite, inaccessiblemem: none) uwtable
define noundef i32 @H5VL_check_plugin_load(ptr nocapture noundef readonly %0, ptr nocapture noundef readonly %1, ptr nocapture noundef %2) local_unnamed_addr #7 {
  %4 = load i32, ptr %1, align 8
  %5 = icmp eq i32 %4, 0
  br i1 %5, label %6, label %13

6:                                                ; preds = %3
  %7 = getelementptr inbounds i8, ptr %0, i64 8
  %8 = load ptr, ptr %7, align 8
  %.not = icmp eq ptr %8, null
  br i1 %.not, label %19, label %9

9:                                                ; preds = %6
  %10 = getelementptr inbounds i8, ptr %1, i64 8
  %11 = load ptr, ptr %10, align 8
  %12 = tail call i32 @strcmp(ptr noundef nonnull dereferenceable(1) %8, ptr noundef nonnull dereferenceable(1) %11) #11
  %.not11 = icmp eq i32 %12, 0
  br i1 %.not11, label %.sink.split, label %19

13:                                               ; preds = %3
  %14 = getelementptr inbounds i8, ptr %0, i64 4
  %15 = load i32, ptr %14, align 4
  %16 = getelementptr inbounds i8, ptr %1, i64 8
  %17 = load i32, ptr %16, align 8
  %18 = icmp eq i32 %15, %17
  br i1 %18, label %.sink.split, label %19

.sink.split:                                      ; preds = %13, %9
  store i8 1, ptr %2, align 1
  br label %19

19:                                               ; preds = %.sink.split, %13, %6, %9
  %20 = load i8, ptr %2, align 1
  %21 = trunc i8 %20 to i1
  br i1 %21, label %22, label %25

22:                                               ; preds = %19
  %23 = load i32, ptr %0, align 8
  %.not12 = icmp eq i32 %23, 3
  br i1 %.not12, label %25, label %24

24:                                               ; preds = %22
  store i8 0, ptr %2, align 1
  br label %25

25:                                               ; preds = %24, %22, %19
  ret i32 0
}